target datalayout = "e-m:e-p270:32:32-p271:32:32-p272:64:64-i64:64-i128:128-f80:128-n8:16:32:64-S128"
target triple = "x86_64-pc-linux-gnu"

%struct.uv__queue = type { ptr, ptr }
%struct.uv_loop_s = type { ptr, i32, %struct.uv__queue, %union.anon.1, ptr, i32, i64, i32, %struct.uv__queue, %struct.uv__queue, ptr, i32, i32, %struct.uv__queue, %union.pthread_mutex_t, %struct.uv_async_s, %union.pthread_rwlock_t, ptr, %struct.uv__queue, %struct.uv__queue, %struct.uv__queue, %struct.uv__queue, %struct.uv__queue, ptr, %struct.uv__io_s, i32, %struct.anon, i64, i64, [2 x i32], %struct.uv__io_s, %struct.uv_signal_s, i32, %struct.uv__io_s, ptr, i32 }
%union.anon.1 = type { ptr }
%union.pthread_mutex_t = type { %struct.__pthread_mutex_s }
%struct.__pthread_mutex_s = type { i32, i32, i32, i32, i32, i16, i16, %struct.__pthread_internal_list }
%struct.__pthread_internal_list = type { ptr, ptr }
%struct.uv_async_s = type { ptr, ptr, i32, ptr, %struct.uv__queue, %union.anon, ptr, i32, ptr, %struct.uv__queue, i32 }
%union.anon = type { [4 x ptr] }
%union.pthread_rwlock_t = type { %struct.__pthread_rwlock_arch_t }
%struct.__pthread_rwlock_arch_t = type { i32, i32, i32, i32, i32, i32, i32, i32, i8, [7 x i8], i64, i32 }
%struct.anon = type { ptr, i32 }
%struct.uv_signal_s = type { ptr, ptr, i32, ptr, %struct.uv__queue, %union.anon.2, ptr, i32, ptr, i32, %struct.anon.3, i32, i32 }
%union.anon.2 = type { [4 x ptr] }
%struct.anon.3 = type { ptr, ptr, ptr, i32 }
%struct.uv__io_s = type { ptr, %struct.uv__queue, %struct.uv__queue, i32, i32, i32 }

; Function Attrs: nounwind uwtable
define internal void @uv__cpu_relax() #0 {
  call void asm sideeffect "rep; nop", "~{memory},~{dirflag},~{fpsr},~{flags}"() #7, !srcloc !4
  ret void
}

; Function Attrs: inlinehint nounwind uwtable
define internal void @uv__queue_split(ptr noundef %0, ptr noundef %1, ptr noundef %2) #2 {
  %4 = alloca ptr, align 8
  %5 = alloca ptr, align 8
  %6 = alloca ptr, align 8
  store ptr %0, ptr %4, align 8
  store ptr %1, ptr %5, align 8
  store ptr %2, ptr %6, align 8
  %7 = load ptr, ptr %4, align 8
  %8 = getelementptr inbounds nuw %struct.uv__queue, ptr %7, i32 0, i32 1
  %9 = load ptr, ptr %8, align 8
  %10 = load ptr, ptr %6, align 8
  %11 = getelementptr inbounds nuw %struct.uv__queue, ptr %10, i32 0, i32 1
  store ptr %9, ptr %11, align 8
  %12 = load ptr, ptr %6, align 8
  %13 = load ptr, ptr %6, align 8
  %14 = getelementptr inbounds nuw %struct.uv__queue, ptr %13, i32 0, i32 1
  %15 = load ptr, ptr %14, align 8
  %16 = getelementptr inbounds nuw %struct.uv__queue, ptr %15, i32 0, i32 0
  store ptr %12, ptr %16, align 8
  %17 = load ptr, ptr %5, align 8
  %18 = load ptr, ptr %6, align 8
  %19 = getelementptr inbounds nuw %struct.uv__queue, ptr %18, i32 0, i32 0
  store ptr %17, ptr %19, align 8
  %20 = load ptr, ptr %5, align 8
  %21 = getelementptr inbounds nuw %struct.uv__queue, ptr %20, i32 0, i32 1
  %22 = load ptr, ptr %21, align 8
  %23 = load ptr, ptr %4, align 8
  %24 = getelementptr inbounds nuw %struct.uv__queue, ptr %23, i32 0, i32 1
  store ptr %22, ptr %24, align 8
  %25 = load ptr, ptr %4, align 8
  %26 = load ptr, ptr %4, align 8
  %27 = getelementptr inbounds nuw %struct.uv__queue, ptr %26, i32 0, i32 1
  %28 = load ptr, ptr %27, align 8
  %29 = getelementptr inbounds nuw %struct.uv__queue, ptr %28, i32 0, i32 0
  store ptr %25, ptr %29, align 8
  %30 = load ptr, ptr %6, align 8
  %31 = load ptr, ptr %5, align 8
  %32 = getelementptr inbounds nuw %struct.uv__queue, ptr %31, i32 0, i32 1
  store ptr %30, ptr %32, align 8
  ret void
}

; Function Attrs: inlinehint nounwind uwtable
define internal void @uv__queue_init(ptr noundef %0) #2 {
  %2 = alloca ptr, align 8
  store ptr %0, ptr %2, align 8
  %3 = load ptr, ptr %2, align 8
  %4 = load ptr, ptr %2, align 8
  %5 = getelementptr inbounds nuw %struct.uv__queue, ptr %4, i32 0, i32 0
  store ptr %3, ptr %5, align 8
  %6 = load ptr, ptr %2, align 8
  %7 = load ptr, ptr %2, align 8
  %8 = getelementptr inbounds nuw %struct.uv__queue, ptr %7, i32 0, i32 1
  store ptr %6, ptr %8, align 8
  ret void
}

; Function Attrs: nounwind uwtable
define internal void @uv__async_spin(ptr noundef %0) #0 {
  %2 = alloca ptr, align 8
  %3 = alloca ptr, align 8
  %4 = alloca ptr, align 8
  %5 = alloca i32, align 4
  %6 = alloca i32, align 4
  %7 = alloca i32, align 4
  store ptr %0, ptr %2, align 8
  call void @llvm.lifetime.start.p0(i64 8, ptr %3) #7
  call void @llvm.lifetime.start.p0(i64 8, ptr %4) #7
  call void @llvm.lifetime.start.p0(i64 4, ptr %5) #7
  %8 = load ptr, ptr %2, align 8
  %9 = getelementptr inbounds nuw %struct.uv_async_s, ptr %8, i32 0, i32 10
  store ptr %9, ptr %3, align 8
  %10 = load ptr, ptr %2, align 8
  %11 = getelementptr inbounds nuw %struct.uv_async_s, ptr %10, i32 0, i32 5
  store ptr %11, ptr %4, align 8
  %12 = load ptr, ptr %3, align 8
  store i32 1, ptr %6, align 4
  %13 = load i32, ptr %6, align 4
  store atomic i32 %13, ptr %12 seq_cst, align 4
  br label %14

14:                                               ; preds = %28, %1
  store i32 0, ptr %5, align 4
  br label %15

15:                                               ; preds = %25, %14
  %16 = load i32, ptr %5, align 4
  %17 = icmp slt i32 %16, 997
  br i1 %17, label %18, label %28

18:                                               ; preds = %15
  %19 = load ptr, ptr %4, align 8
  %20 = load atomic i32, ptr %19 seq_cst, align 4
  store i32 %20, ptr %7, align 4
  %21 = load i32, ptr %7, align 4
  %22 = icmp eq i32 %21, 0
  br i1 %22, label %23, label %24

23:                                               ; preds = %18
  call void @llvm.lifetime.end.p0(i64 4, ptr %5) #7
  call void @llvm.lifetime.end.p0(i64 8, ptr %4) #7
  call void @llvm.lifetime.end.p0(i64 8, ptr %3) #7
  ret void

24:                                               ; preds = %18
  call void @uv__cpu_relax()
  br label %25

25:                                               ; preds = %24
  %26 = load i32, ptr %5, align 4
  %27 = add nsw i32 %26, 1
  store i32 %27, ptr %5, align 4
  br label %15

28:                                               ; preds = %15
  %29 = call i32 @sched_yield() #7
  br label %14
}

; Function Attrs: inlinehint nounwind uwtable
define internal void @uv__queue_insert_tail(ptr noundef %0, ptr noundef %1) #2 {
  %3 = alloca ptr, align 8
  %4 = alloca ptr, align 8
  store ptr %0, ptr %3, align 8
  store ptr %1, ptr %4, align 8
  %5 = load ptr, ptr %3, align 8
  %6 = load ptr, ptr %4, align 8
  %7 = getelementptr inbounds nuw %struct.uv__queue, ptr %6, i32 0, i32 0
  store ptr %5, ptr %7, align 8
  %8 = load ptr, ptr %3, align 8
  %9 = getelementptr inbounds nuw %struct.uv__queue, ptr %8, i32 0, i32 1
  %10 = load ptr, ptr %9, align 8
  %11 = load ptr, ptr %4, align 8
  %12 = getelementptr inbounds nuw %struct.uv__queue, ptr %11, i32 0, i32 1
  store ptr %10, ptr %12, align 8
  %13 = load ptr, ptr %4, align 8
  %14 = load ptr, ptr %4, align 8
  %15 = getelementptr inbounds nuw %struct.uv__queue, ptr %14, i32 0, i32 1
  %16 = load ptr, ptr %15, align 8
  %17 = getelementptr inbounds nuw %struct.uv__queue, ptr %16, i32 0, i32 0
  store ptr %13, ptr %17, align 8
  %18 = load ptr, ptr %4, align 8
  %19 = load ptr, ptr %3, align 8
  %20 = getelementptr inbounds nuw %struct.uv__queue, ptr %19, i32 0, i32 1
  store ptr %18, ptr %20, align 8
  ret void
}

; Function Attrs: inlinehint nounwind uwtable
define internal void @uv__queue_remove(ptr noundef %0) #2 {
  %2 = alloca ptr, align 8
  store ptr %0, ptr %2, align 8
  %3 = load ptr, ptr %2, align 8
  %4 = getelementptr inbounds nuw %struct.uv__queue, ptr %3, i32 0, i32 0
  %5 = load ptr, ptr %4, align 8
  %6 = load ptr, ptr %2, align 8
  %7 = getelementptr inbounds nuw %struct.uv__queue, ptr %6, i32 0, i32 1
  %8 = load ptr, ptr %7, align 8
  %9 = getelementptr inbounds nuw %struct.uv__queue, ptr %8, i32 0, i32 0
  store ptr %5, ptr %9, align 8
  %10 = load ptr, ptr %2, align 8
  %11 = getelementptr inbounds nuw %struct.uv__queue, ptr %10, i32 0, i32 1
  %12 = load ptr, ptr %11, align 8
  %13 = load ptr, ptr %2, align 8
  %14 = getelementptr inbounds nuw %struct.uv__queue, ptr %13, i32 0, i32 0
  %15 = load ptr, ptr %14, align 8
  %16 = getelementptr inbounds nuw %struct.uv__queue, ptr %15, i32 0, i32 1
  store ptr %12, ptr %16, align 8
  ret void
}

; Function Attrs: inlinehint nounwind uwtable
define internal ptr @uv__queue_head(ptr noundef %0) #2 {
  %2 = alloca ptr, align 8
  store ptr %0, ptr %2, align 8
  %3 = load ptr, ptr %2, align 8
  %4 = getelementptr inbounds nuw %struct.uv__queue, ptr %3, i32 0, i32 0
  %5 = load ptr, ptr %4, align 8
  ret ptr %5
}

; Function Attrs: inlinehint nounwind uwtable
define internal i32 @uv__queue_empty(ptr noundef %0) #2 {
  %2 = alloca ptr, align 8
  store ptr %0, ptr %2, align 8
  %3 = load ptr, ptr %2, align 8
  %4 = load ptr, ptr %2, align 8
  %5 = getelementptr inbounds nuw %struct.uv__queue, ptr %4, i32 0, i32 0
  %6 = load ptr, ptr %5, align 8
  %7 = icmp eq ptr %3, %6
  %8 = zext i1 %7 to i32
  ret i32 %8
}

; Function Attrs: inlinehint nounwind uwtable
define internal void @uv__queue_move(ptr noundef %0, ptr noundef %1) #2 {
  %3 = alloca ptr, align 8
  %4 = alloca ptr, align 8
  store ptr %0, ptr %3, align 8
  store ptr %1, ptr %4, align 8
  %5 = load ptr, ptr %3, align 8
  %6 = call i32 @uv__queue_empty(ptr noundef %5)
  %7 = icmp ne i32 %6, 0
  br i1 %7, label %8, label %10

8:                                                ; preds = %2
  %9 = load ptr, ptr %4, align 8
  call void @uv__queue_init(ptr noundef %9)
  br label %16

10:                                               ; preds = %2
  %11 = load ptr, ptr %3, align 8
  %12 = load ptr, ptr %3, align 8
  %13 = getelementptr inbounds nuw %struct.uv__queue, ptr %12, i32 0, i32 0
  %14 = load ptr, ptr %13, align 8
  %15 = load ptr, ptr %4, align 8
  call void @uv__queue_split(ptr noundef %11, ptr noundef %14, ptr noundef %15)
  br label %16

16:                                               ; preds = %10, %8
  ret void
}

; Function Attrs: nounwind uwtable
define hidden void @uv__async_stop(ptr noundef %0) #0 {
  %2 = alloca ptr, align 8
  %3 = alloca %struct.uv__queue, align 8
  %4 = alloca ptr, align 8
  %5 = alloca ptr, align 8
  %6 = alloca i32, align 4
  store ptr %0, ptr %2, align 8
  call void @llvm.lifetime.start.p0(i64 16, ptr %3) #7
  call void @llvm.lifetime.start.p0(i64 8, ptr %4) #7
  call void @llvm.lifetime.start.p0(i64 8, ptr %5) #7
  %7 = load ptr, ptr %2, align 8
  %8 = getelementptr inbounds nuw %struct.uv_loop_s, ptr %7, i32 0, i32 24
  %9 = getelementptr inbounds nuw %struct.uv__io_s, ptr %8, i32 0, i32 5
  %10 = load i32, ptr %9, align 8
  %11 = icmp eq i32 %10, -1
  br i1 %11, label %12, label %13

12:                                               ; preds = %1
  store i32 1, ptr %6, align 4
  br label %63

13:                                               ; preds = %1
  %14 = load ptr, ptr %2, align 8
  %15 = getelementptr inbounds nuw %struct.uv_loop_s, ptr %14, i32 0, i32 22
  call void @uv__queue_move(ptr noundef %15, ptr noundef %3)
  br label %16

16:                                               ; preds = %20, %13
  %17 = call i32 @uv__queue_empty(ptr noundef %3)
  %18 = icmp ne i32 %17, 0
  %19 = xor i1 %18, true
  br i1 %19, label %20, label %29

20:                                               ; preds = %16
  %21 = call ptr @uv__queue_head(ptr noundef %3)
  store ptr %21, ptr %4, align 8
  %22 = load ptr, ptr %4, align 8
  %23 = getelementptr inbounds i8, ptr %22, i64 -104
  store ptr %23, ptr %5, align 8
  %24 = load ptr, ptr %4, align 8
  call void @uv__queue_remove(ptr noundef %24)
  %25 = load ptr, ptr %2, align 8
  %26 = getelementptr inbounds nuw %struct.uv_loop_s, ptr %25, i32 0, i32 22
  %27 = load ptr, ptr %4, align 8
  call void @uv__queue_insert_tail(ptr noundef %26, ptr noundef %27)
  %28 = load ptr, ptr %5, align 8
  call void @uv__async_spin(ptr noundef %28)
  br label %16

29:                                               ; preds = %16
  %30 = load ptr, ptr %2, align 8
  %31 = getelementptr inbounds nuw %struct.uv_loop_s, ptr %30, i32 0, i32 25
  %32 = load i32, ptr %31, align 8
  %33 = icmp ne i32 %32, -1
  br i1 %33, label %34, label %51

34:                                               ; preds = %29
  %35 = load ptr, ptr %2, align 8
  %36 = getelementptr inbounds nuw %struct.uv_loop_s, ptr %35, i32 0, i32 25
  %37 = load i32, ptr %36, align 8
  %38 = load ptr, ptr %2, align 8
  %39 = getelementptr inbounds nuw %struct.uv_loop_s, ptr %38, i32 0, i32 24
  %40 = getelementptr inbounds nuw %struct.uv__io_s, ptr %39, i32 0, i32 5
  %41 = load i32, ptr %40, align 8
  %42 = icmp ne i32 %37, %41
  br i1 %42, label %43, label %48

43:                                               ; preds = %34
  %44 = load ptr, ptr %2, align 8
  %45 = getelementptr inbounds nuw %struct.uv_loop_s, ptr %44, i32 0, i32 25
  %46 = load i32, ptr %45, align 8
  %47 = call i32 @uv__close(i32 noundef %46)
  br label %48

48:                                               ; preds = %43, %34
  %49 = load ptr, ptr %2, align 8
  %50 = getelementptr inbounds nuw %struct.uv_loop_s, ptr %49, i32 0, i32 25
  store i32 -1, ptr %50, align 8
  br label %51

51:                                               ; preds = %48, %29
  %52 = load ptr, ptr %2, align 8
  %53 = load ptr, ptr %2, align 8
  %54 = getelementptr inbounds nuw %struct.uv_loop_s, ptr %53, i32 0, i32 24
  call void @uv__io_stop(ptr noundef %52, ptr noundef %54, i32 noundef 1)
  %55 = load ptr, ptr %2, align 8
  %56 = getelementptr inbounds nuw %struct.uv_loop_s, ptr %55, i32 0, i32 24
  %57 = getelementptr inbounds nuw %struct.uv__io_s, ptr %56, i32 0, i32 5
  %58 = load i32, ptr %57, align 8
  %59 = call i32 @uv__close(i32 noundef %58)
  %60 = load ptr, ptr %2, align 8
  %61 = getelementptr inbounds nuw %struct.uv_loop_s, ptr %60, i32 0, i32 24
  %62 = getelementptr inbounds nuw %struct.uv__io_s, ptr %61, i32 0, i32 5
  store i32 -1, ptr %62, align 8
  store i32 0, ptr %6, align 4
  br label %63

63:                                               ; preds = %51, %12
  call void @llvm.lifetime.end.p0(i64 8, ptr %5) #7
  call void @llvm.lifetime.end.p0(i64 8, ptr %4) #7
  call void @llvm.lifetime.end.p0(i64 16, ptr %3) #7
  %64 = load i32, ptr %6, align 4
  switch i32 %64, label %66 [
    i32 0, label %65
    i32 1, label %65
  ]

65:                                               ; preds = %63, %63
  ret void

66:                                               ; preds = %63
  unreachable
}