; Function Attrs: nounwind uwtable
define hidden void @uv__async_stop(ptr noundef %0) local_unnamed_addr #0 {
  %2 = alloca %struct.uv__queue, align 8
  call void @llvm.lifetime.start.p0(i64 16, ptr nonnull %2) #8
  %3 = getelementptr inbounds nuw i8, ptr %0, i64 456
  %4 = getelementptr inbounds nuw i8, ptr %0, i64 504
  %5 = load i32, ptr %4, align 8
  %6 = icmp eq i32 %5, -1
  br i1 %6, label %45, label %7

7:                                                ; preds = %1
  %8 = getelementptr inbounds nuw i8, ptr %0, i64 432
  %9 = load ptr, ptr %8, align 8
  %.not.i = icmp eq ptr %8, %9
  br i1 %.not.i, label %uv__queue_move.exit.thread, label %uv__queue_move.exit

uv__queue_move.exit.thread:                       ; preds = %7
  store ptr %2, ptr %2, align 8
  %10 = getelementptr inbounds nuw i8, ptr %2, i64 8
  store ptr %2, ptr %10, align 8
  br label %uv__async_spin.exit._crit_edge

uv__queue_move.exit:                              ; preds = %7
  %11 = getelementptr inbounds nuw i8, ptr %0, i64 440
  %12 = load ptr, ptr %11, align 8
  %13 = getelementptr inbounds nuw i8, ptr %2, i64 8
  store ptr %12, ptr %13, align 8
  store ptr %2, ptr %12, align 8
  store ptr %9, ptr %2, align 8
  %14 = getelementptr inbounds nuw i8, ptr %9, i64 8
  %15 = load ptr, ptr %14, align 8
  store ptr %15, ptr %11, align 8
  store ptr %8, ptr %15, align 8
  store ptr %2, ptr %14, align 8
  %.pre = load ptr, ptr %2, align 8
  %.not18 = icmp eq ptr %2, %.pre
  br i1 %.not18, label %uv__async_spin.exit._crit_edge, label %.lr.ph

.lr.ph:                                           ; preds = %uv__queue_move.exit
  %16 = getelementptr inbounds nuw i8, ptr %0, i64 440
  br label %18

uv__async_spin.exit.loopexit:                     ; preds = %28
  %17 = load ptr, ptr %2, align 8
  %.not = icmp eq ptr %2, %17
  br i1 %.not, label %uv__async_spin.exit._crit_edge, label %18

18:                                               ; preds = %.lr.ph, %uv__async_spin.exit.loopexit
  %19 = phi ptr [ %.pre, %.lr.ph ], [ %17, %uv__async_spin.exit.loopexit ]
  %20 = load ptr, ptr %19, align 8
  %21 = getelementptr inbounds nuw i8, ptr %19, i64 8
  %22 = load ptr, ptr %21, align 8
  store ptr %20, ptr %22, align 8
  %23 = load ptr, ptr %21, align 8
  %24 = getelementptr inbounds nuw i8, ptr %20, i64 8
  store ptr %23, ptr %24, align 8
  store ptr %8, ptr %19, align 8
  %25 = load ptr, ptr %16, align 8
  store ptr %25, ptr %21, align 8
  store ptr %19, ptr %25, align 8
  store ptr %19, ptr %16, align 8
  %26 = getelementptr inbounds nuw i8, ptr %19, i64 16
  %27 = getelementptr inbounds i8, ptr %19, i64 -56
  store atomic i32 1, ptr %26 seq_cst, align 4
  br label %28

28:                                               ; preds = %.backedge, %18
  %.07.i = phi i32 [ 0, %18 ], [ %.07.i.be, %.backedge ]
  %29 = load atomic i32, ptr %27 seq_cst, align 4
  %30 = icmp eq i32 %29, 0
  br i1 %30, label %uv__async_spin.exit.loopexit, label %31

31:                                               ; preds = %28
  call void asm sideeffect "rep; nop", "~{memory},~{dirflag},~{fpsr},~{flags}"() #8, !srcloc !4
  %32 = add nuw nsw i32 %.07.i, 1
  %exitcond.not.i = icmp eq i32 %32, 997
  br i1 %exitcond.not.i, label %33, label %.backedge

.backedge:                                        ; preds = %31, %33
  %.07.i.be = phi i32 [ %32, %31 ], [ 0, %33 ]
  br label %28

33:                                               ; preds = %31
  %34 = call i32 @sched_yield() #8
  br label %.backedge

uv__async_spin.exit._crit_edge:                   ; preds = %uv__async_spin.exit.loopexit, %uv__queue_move.exit.thread, %uv__queue_move.exit
  %35 = getelementptr inbounds nuw i8, ptr %0, i64 512
  %36 = load i32, ptr %35, align 8
  %.not16 = icmp eq i32 %36, -1
  br i1 %.not16, label %42, label %37

37:                                               ; preds = %uv__async_spin.exit._crit_edge
  %38 = load i32, ptr %4, align 8
  %.not17 = icmp eq i32 %36, %38
  br i1 %.not17, label %41, label %39

39:                                               ; preds = %37
  %40 = call i32 @uv__close(i32 noundef %36) #8
  br label %41

41:                                               ; preds = %39, %37
  store i32 -1, ptr %35, align 8
  br label %42

42:                                               ; preds = %41, %uv__async_spin.exit._crit_edge
  call void @uv__io_stop(ptr noundef nonnull %0, ptr noundef nonnull %3, i32 noundef 1) #8
  %43 = load i32, ptr %4, align 8
  %44 = call i32 @uv__close(i32 noundef %43) #8
  store i32 -1, ptr %4, align 8
  br label %45

45:                                               ; preds = %1, %42
  call void @llvm.lifetime.end.p0(i64 16, ptr nonnull %2) #8
  ret void
}